; Function Attrs: mustprogress nounwind uwtable
define internal fastcc void @_ZN12_GLOBAL__N_116FunctionCompiler19compileVectorPopcntEv(ptr noundef nonnull align 8 dereferenceable(200) %0) unnamed_addr #0 align 2 {
  %2 = alloca %"class.WasmEdge::LLVM::Value", align 8
  %3 = alloca %"class.WasmEdge::LLVM::Value", align 8
  %4 = load ptr, ptr %0, align 8
  %5 = getelementptr inbounds nuw i8, ptr %4, i64 144
  %6 = load i64, ptr %5, align 8
  call void @llvm.lifetime.start.p0(i64 8, ptr nonnull %3)
  %7 = getelementptr inbounds nuw i8, ptr %0, i64 192
  %8 = getelementptr inbounds nuw i8, ptr %0, i64 48
  %9 = load ptr, ptr %8, align 8
  %10 = getelementptr inbounds i8, ptr %9, i64 -8
  %11 = load i64, ptr %10, align 8
  %12 = inttoptr i64 %11 to ptr
  %13 = inttoptr i64 %6 to ptr
  %14 = load ptr, ptr %7, align 8, !noalias !4599
  %15 = tail call ptr @LLVMBuildBitCast(ptr noundef %14, ptr noundef %12, ptr noundef %13, ptr noundef nonnull @.str.11) #16, !noalias !4599
  %16 = ptrtoint ptr %15 to i64
  call void @llvm.lifetime.start.p0(i64 8, ptr nonnull %2)
  %17 = load i32, ptr @_ZN8WasmEdge4LLVM4Core5CtpopE, align 4, !noalias !4602
  %18 = icmp ne i32 %17, 0
  tail call void @llvm.assume(i1 %18)
  store i64 %16, ptr %2, align 8, !noalias !4602
  call void @_ZN8WasmEdge4LLVM7Builder20createUnaryIntrinsicEjNS0_5ValueEPKc(ptr dead_on_unwind nonnull writable sret(%"class.WasmEdge::LLVM::Value") align 8 %3, ptr noundef nonnull align 8 dereferenceable(8) %7, i32 noundef %17, ptr noundef nonnull %2, ptr noundef nonnull @.str.11) #16
  call void @llvm.lifetime.end.p0(i64 8, ptr nonnull %2)
  %19 = load ptr, ptr %0, align 8
  %20 = getelementptr inbounds nuw i8, ptr %19, i64 176
  %21 = load i64, ptr %20, align 8
  %22 = inttoptr i64 %21 to ptr
  %23 = load ptr, ptr %7, align 8, !noalias !4605
  %24 = load ptr, ptr %3, align 8, !noalias !4605
  %25 = call ptr @LLVMBuildBitCast(ptr noundef %23, ptr noundef %24, ptr noundef %22, ptr noundef nonnull @.str.11) #16, !noalias !4605
  %26 = load ptr, ptr %8, align 8
  %27 = getelementptr inbounds i8, ptr %26, i64 -8
  store ptr %25, ptr %27, align 8
  call void @llvm.lifetime.end.p0(i64 8, ptr nonnull %3)
  ret void
}